; Function Attrs: mustprogress nounwind uwtable
define hidden void @_ZN19VM_ChangeSingleStep4doitEv(ptr nocapture noundef nonnull readonly align 8 dereferenceable(17) %0) unnamed_addr #3 align 2 {
  %2 = load volatile ptr, ptr getelementptr inbounds (i8, ptr @_ZN16LogTagSetMappingILN6LogTag4typeE62ELS1_132ELS1_0ELS1_0ELS1_0ELS1_0EE7_tagsetE, i64 56), align 8
  %.not = icmp eq ptr %2, null
  br i1 %.not, label %8, label %3

3:                                                ; preds = %1
  %4 = getelementptr inbounds i8, ptr %0, i64 16
  %5 = load i8, ptr %4, align 8
  %6 = trunc i8 %5 to i1
  %7 = select i1 %6, ptr @.str.4, ptr @.str.5
  tail call void (ptr, ...) @_ZN7LogImplILN6LogTag4typeE62ELS1_132ELS1_0ELS1_0ELS1_0ELS1_0EE5writeILN8LogLevel4typeE2EEEvPKcz(ptr noundef nonnull @.str, ptr noundef nonnull %7)
  br label %8

8:                                                ; preds = %1, %3
  %9 = getelementptr inbounds i8, ptr %0, i64 16
  %10 = load i8, ptr %9, align 8
  %11 = trunc i8 %10 to i1
  %12 = and i8 %10, 1
  store i8 %12, ptr @_ZN11JvmtiExport24_should_post_single_stepE, align 1
  br i1 %11, label %13, label %14

13:                                               ; preds = %8
  tail call void @_ZN19TemplateInterpreter17notice_safepointsEv() #15
  br label %15

14:                                               ; preds = %8
  tail call void @_ZN19TemplateInterpreter17ignore_safepointsEv() #15
  br label %15

15:                                               ; preds = %14, %13
  ret void
}